target datalayout = "e-m:e-p270:32:32-p271:32:32-p272:64:64-i64:64-i128:128-f80:128-n8:16:32:64-S128"
target triple = "x86_64-pc-linux-gnu"

%struct._object = type { %union.anon, ptr }
%union.anon = type { i64 }
%struct.anon = type { i32, i32 }

@perm_comb_small.fast_comb_limits1 = internal constant [35 x i8] c"\00\00\7F\7F\7F\7F\7F\7F\7F\7F\7F\7F\7F\7F\7F\7Ftia[VRNLJHGFEDDCCCC", align 16
@factorial_trailing_zeros = internal constant [128 x i8] c"\00\00\01\01\03\03\04\04\07\07\08\08\0A\0A\0B\0B\0F\0F\10\10\12\12\13\13\16\16\17\17\19\19\1A\1A\1F\1F  \22\22##&&''))**..//112255668899??@@BBCCFFGGIIJJNNOOQQRRUUVVXXYY^^__aabbeeffhhiimmnnppqqttuuwwxx", align 16
@perm_comb_small.fast_comb_limits2 = internal constant [14 x i64] [i64 0, i64 -1, i64 4294967296, i64 3329022, i64 102570, i64 13467, i64 3612, i64 1449, i64 746, i64 453, i64 308, i64 227, i64 178, i64 147], align 16
@perm_comb_small.fast_perm_limits = internal constant [21 x i64] [i64 0, i64 -1, i64 4294967296, i64 2642246, i64 65537, i64 7133, i64 1627, i64 568, i64 259, i64 142, i64 88, i64 61, i64 45, i64 36, i64 30, i64 26, i64 24, i64 22, i64 21, i64 20, i64 20], align 16

; Function Attrs: alwaysinline nounwind uwtable
define internal i32 @_Py_IsImmortal(ptr noundef %0) #7 {
  %2 = alloca ptr, align 8
  store ptr %0, ptr %2, align 8, !tbaa !3
  %3 = load ptr, ptr %2, align 8, !tbaa !3
  %4 = getelementptr inbounds nuw %struct._object, ptr %3, i32 0, i32 0
  %5 = getelementptr inbounds nuw %struct.anon, ptr %4, i32 0, i32 0
  %6 = load i32, ptr %5, align 8, !tbaa !47
  %7 = icmp slt i32 %6, 0
  %8 = zext i1 %7 to i32
  ret i32 %8
}

; Function Attrs: alwaysinline nounwind uwtable
define internal void @Py_DECREF(ptr noundef %0) #7 {
  %2 = alloca ptr, align 8
  store ptr %0, ptr %2, align 8, !tbaa !3
  %3 = load ptr, ptr %2, align 8, !tbaa !3
  %4 = call i32 @_Py_IsImmortal(ptr noundef %3)
  %5 = icmp ne i32 %4, 0
  br i1 %5, label %6, label %7

6:                                                ; preds = %1
  br label %16

7:                                                ; preds = %1
  %8 = load ptr, ptr %2, align 8, !tbaa !3
  %9 = getelementptr inbounds nuw %struct._object, ptr %8, i32 0, i32 0
  %10 = getelementptr inbounds nuw %struct.anon, ptr %9, i32 0, i32 0
  %11 = load i32, ptr %10, align 8, !tbaa !47
  %12 = add i32 %11, -1
  store i32 %12, ptr %10, align 8, !tbaa !47
  %13 = icmp eq i32 %12, 0
  br i1 %13, label %14, label %16

14:                                               ; preds = %7
  %15 = load ptr, ptr %2, align 8, !tbaa !3
  call void @_Py_Dealloc(ptr noundef %15)
  br label %16

16:                                               ; preds = %6, %14, %7
  ret void
}

; Function Attrs: nounwind uwtable
define internal ptr @perm_comb_small(i64 noundef %0, i64 noundef %1, i32 noundef %2) #0 {
  %4 = alloca ptr, align 8
  %5 = alloca i64, align 8
  %6 = alloca i64, align 8
  %7 = alloca i32, align 4
  %8 = alloca i64, align 8
  %9 = alloca i32, align 4
  %10 = alloca i64, align 8
  %11 = alloca i64, align 8
  %12 = alloca i64, align 8
  %13 = alloca i32, align 4
  %14 = alloca i64, align 8
  %15 = alloca i64, align 8
  %16 = alloca i64, align 8
  %17 = alloca ptr, align 8
  %18 = alloca ptr, align 8
  %19 = alloca i32, align 4
  %20 = alloca ptr, align 8
  %21 = alloca ptr, align 8
  %22 = alloca ptr, align 8
  %23 = alloca ptr, align 8
  store i64 %0, ptr %5, align 8, !tbaa !91
  store i64 %1, ptr %6, align 8, !tbaa !91
  store i32 %2, ptr %7, align 4, !tbaa !17
  %24 = load i32, ptr %7, align 4, !tbaa !17
  %25 = icmp ne i32 %24, 0
  br i1 %25, label %26, label %100

26:                                               ; preds = %3
  %27 = load i64, ptr %6, align 8, !tbaa !91
  %28 = icmp ult i64 %27, 35
  br i1 %28, label %29, label %71

29:                                               ; preds = %26
  %30 = load i64, ptr %5, align 8, !tbaa !91
  %31 = load i64, ptr %6, align 8, !tbaa !91
  %32 = getelementptr [35 x i8], ptr @perm_comb_small.fast_comb_limits1, i64 0, i64 %31
  %33 = load i8, ptr %32, align 1, !tbaa !47
  %34 = zext i8 %33 to i64
  %35 = icmp ule i64 %30, %34
  br i1 %35, label %36, label %71

36:                                               ; preds = %29
  call void @llvm.lifetime.start.p0(i64 8, ptr %8) #10
  %37 = load i64, ptr %5, align 8, !tbaa !91
  %38 = getelementptr [128 x i64], ptr @reduced_factorial_odd_part, i64 0, i64 %37
  %39 = load i64, ptr %38, align 8, !tbaa !11
  %40 = load i64, ptr %6, align 8, !tbaa !91
  %41 = getelementptr [128 x i64], ptr @inverted_factorial_odd_part, i64 0, i64 %40
  %42 = load i64, ptr %41, align 8, !tbaa !11
  %43 = mul i64 %39, %42
  %44 = load i64, ptr %5, align 8, !tbaa !91
  %45 = load i64, ptr %6, align 8, !tbaa !91
  %46 = sub i64 %44, %45
  %47 = getelementptr [128 x i64], ptr @inverted_factorial_odd_part, i64 0, i64 %46
  %48 = load i64, ptr %47, align 8, !tbaa !11
  %49 = mul i64 %43, %48
  store i64 %49, ptr %8, align 8, !tbaa !11
  call void @llvm.lifetime.start.p0(i64 4, ptr %9) #10
  %50 = load i64, ptr %5, align 8, !tbaa !91
  %51 = getelementptr [128 x i8], ptr @factorial_trailing_zeros, i64 0, i64 %50
  %52 = load i8, ptr %51, align 1, !tbaa !47
  %53 = zext i8 %52 to i32
  %54 = load i64, ptr %6, align 8, !tbaa !91
  %55 = getelementptr [128 x i8], ptr @factorial_trailing_zeros, i64 0, i64 %54
  %56 = load i8, ptr %55, align 1, !tbaa !47
  %57 = zext i8 %56 to i32
  %58 = sub i32 %53, %57
  %59 = load i64, ptr %5, align 8, !tbaa !91
  %60 = load i64, ptr %6, align 8, !tbaa !91
  %61 = sub i64 %59, %60
  %62 = getelementptr [128 x i8], ptr @factorial_trailing_zeros, i64 0, i64 %61
  %63 = load i8, ptr %62, align 1, !tbaa !47
  %64 = zext i8 %63 to i32
  %65 = sub i32 %58, %64
  store i32 %65, ptr %9, align 4, !tbaa !17
  %66 = load i64, ptr %8, align 8, !tbaa !11
  %67 = load i32, ptr %9, align 4, !tbaa !17
  %68 = zext i32 %67 to i64
  %69 = shl i64 %66, %68
  %70 = call ptr @PyLong_FromUnsignedLongLong(i64 noundef %69)
  store ptr %70, ptr %4, align 8
  call void @llvm.lifetime.end.p0(i64 4, ptr %9) #10
  call void @llvm.lifetime.end.p0(i64 8, ptr %8) #10
  br label %219

71:                                               ; preds = %29, %26
  %72 = load i64, ptr %6, align 8, !tbaa !91
  %73 = icmp ult i64 %72, 14
  br i1 %73, label %74, label %99

74:                                               ; preds = %71
  %75 = load i64, ptr %5, align 8, !tbaa !91
  %76 = load i64, ptr %6, align 8, !tbaa !91
  %77 = getelementptr [14 x i64], ptr @perm_comb_small.fast_comb_limits2, i64 0, i64 %76
  %78 = load i64, ptr %77, align 8, !tbaa !91
  %79 = icmp ule i64 %75, %78
  br i1 %79, label %80, label %99

80:                                               ; preds = %74
  call void @llvm.lifetime.start.p0(i64 8, ptr %10) #10
  %81 = load i64, ptr %5, align 8, !tbaa !91
  store i64 %81, ptr %10, align 8, !tbaa !91
  call void @llvm.lifetime.start.p0(i64 8, ptr %11) #10
  store i64 1, ptr %11, align 8, !tbaa !91
  br label %82

82:                                               ; preds = %87, %80
  %83 = load i64, ptr %11, align 8, !tbaa !91
  %84 = load i64, ptr %6, align 8, !tbaa !91
  %85 = icmp ult i64 %83, %84
  br i1 %85, label %87, label %86

86:                                               ; preds = %82
  call void @llvm.lifetime.end.p0(i64 8, ptr %11) #10
  br label %96

87:                                               ; preds = %82
  %88 = load i64, ptr %5, align 8, !tbaa !91
  %89 = add i64 %88, -1
  store i64 %89, ptr %5, align 8, !tbaa !91
  %90 = load i64, ptr %10, align 8, !tbaa !91
  %91 = mul i64 %90, %89
  store i64 %91, ptr %10, align 8, !tbaa !91
  %92 = load i64, ptr %11, align 8, !tbaa !91
  %93 = add i64 %92, 1
  store i64 %93, ptr %11, align 8, !tbaa !91
  %94 = load i64, ptr %10, align 8, !tbaa !91
  %95 = udiv i64 %94, %93
  store i64 %95, ptr %10, align 8, !tbaa !91
  br label %82, !llvm.loop !93

96:                                               ; preds = %86
  %97 = load i64, ptr %10, align 8, !tbaa !91
  %98 = call ptr @PyLong_FromUnsignedLongLong(i64 noundef %97)
  store ptr %98, ptr %4, align 8
  call void @llvm.lifetime.end.p0(i64 8, ptr %10) #10
  br label %219

99:                                               ; preds = %74, %71
  br label %156

100:                                              ; preds = %3
  %101 = load i64, ptr %6, align 8, !tbaa !91
  %102 = icmp ult i64 %101, 21
  br i1 %102, label %103, label %155

103:                                              ; preds = %100
  %104 = load i64, ptr %5, align 8, !tbaa !91
  %105 = load i64, ptr %6, align 8, !tbaa !91
  %106 = getelementptr [21 x i64], ptr @perm_comb_small.fast_perm_limits, i64 0, i64 %105
  %107 = load i64, ptr %106, align 8, !tbaa !91
  %108 = icmp ule i64 %104, %107
  br i1 %108, label %109, label %155

109:                                              ; preds = %103
  %110 = load i64, ptr %5, align 8, !tbaa !91
  %111 = icmp ule i64 %110, 127
  br i1 %111, label %112, label %138

112:                                              ; preds = %109
  call void @llvm.lifetime.start.p0(i64 8, ptr %12) #10
  %113 = load i64, ptr %5, align 8, !tbaa !91
  %114 = getelementptr [128 x i64], ptr @reduced_factorial_odd_part, i64 0, i64 %113
  %115 = load i64, ptr %114, align 8, !tbaa !11
  %116 = load i64, ptr %5, align 8, !tbaa !91
  %117 = load i64, ptr %6, align 8, !tbaa !91
  %118 = sub i64 %116, %117
  %119 = getelementptr [128 x i64], ptr @inverted_factorial_odd_part, i64 0, i64 %118
  %120 = load i64, ptr %119, align 8, !tbaa !11
  %121 = mul i64 %115, %120
  store i64 %121, ptr %12, align 8, !tbaa !11
  call void @llvm.lifetime.start.p0(i64 4, ptr %13) #10
  %122 = load i64, ptr %5, align 8, !tbaa !91
  %123 = getelementptr [128 x i8], ptr @factorial_trailing_zeros, i64 0, i64 %122
  %124 = load i8, ptr %123, align 1, !tbaa !47
  %125 = zext i8 %124 to i32
  %126 = load i64, ptr %5, align 8, !tbaa !91
  %127 = load i64, ptr %6, align 8, !tbaa !91
  %128 = sub i64 %126, %127
  %129 = getelementptr [128 x i8], ptr @factorial_trailing_zeros, i64 0, i64 %128
  %130 = load i8, ptr %129, align 1, !tbaa !47
  %131 = zext i8 %130 to i32
  %132 = sub i32 %125, %131
  store i32 %132, ptr %13, align 4, !tbaa !17
  %133 = load i64, ptr %12, align 8, !tbaa !11
  %134 = load i32, ptr %13, align 4, !tbaa !17
  %135 = zext i32 %134 to i64
  %136 = shl i64 %133, %135
  %137 = call ptr @PyLong_FromUnsignedLongLong(i64 noundef %136)
  store ptr %137, ptr %4, align 8
  call void @llvm.lifetime.end.p0(i64 4, ptr %13) #10
  call void @llvm.lifetime.end.p0(i64 8, ptr %12) #10
  br label %219

138:                                              ; preds = %109
  call void @llvm.lifetime.start.p0(i64 8, ptr %14) #10
  %139 = load i64, ptr %5, align 8, !tbaa !91
  store i64 %139, ptr %14, align 8, !tbaa !91
  call void @llvm.lifetime.start.p0(i64 8, ptr %15) #10
  store i64 1, ptr %15, align 8, !tbaa !91
  br label %140

140:                                              ; preds = %145, %138
  %141 = load i64, ptr %15, align 8, !tbaa !91
  %142 = load i64, ptr %6, align 8, !tbaa !91
  %143 = icmp ult i64 %141, %142
  br i1 %143, label %145, label %144

144:                                              ; preds = %140
  call void @llvm.lifetime.end.p0(i64 8, ptr %15) #10
  br label %152

145:                                              ; preds = %140
  %146 = load i64, ptr %5, align 8, !tbaa !91
  %147 = add i64 %146, -1
  store i64 %147, ptr %5, align 8, !tbaa !91
  %148 = load i64, ptr %14, align 8, !tbaa !91
  %149 = mul i64 %148, %147
  store i64 %149, ptr %14, align 8, !tbaa !91
  %150 = load i64, ptr %15, align 8, !tbaa !91
  %151 = add i64 %150, 1
  store i64 %151, ptr %15, align 8, !tbaa !91
  br label %140, !llvm.loop !94

152:                                              ; preds = %144
  %153 = load i64, ptr %14, align 8, !tbaa !91
  %154 = call ptr @PyLong_FromUnsignedLongLong(i64 noundef %153)
  store ptr %154, ptr %4, align 8
  call void @llvm.lifetime.end.p0(i64 8, ptr %14) #10
  br label %219

155:                                              ; preds = %103, %100
  br label %156

156:                                              ; preds = %155, %99
  call void @llvm.lifetime.start.p0(i64 8, ptr %16) #10
  %157 = load i64, ptr %6, align 8, !tbaa !91
  %158 = udiv i64 %157, 2
  store i64 %158, ptr %16, align 8, !tbaa !91
  call void @llvm.lifetime.start.p0(i64 8, ptr %17) #10
  call void @llvm.lifetime.start.p0(i64 8, ptr %18) #10
  %159 = load i64, ptr %5, align 8, !tbaa !91
  %160 = load i64, ptr %16, align 8, !tbaa !91
  %161 = load i32, ptr %7, align 4, !tbaa !17
  %162 = call ptr @perm_comb_small(i64 noundef %159, i64 noundef %160, i32 noundef %161)
  store ptr %162, ptr %17, align 8, !tbaa !3
  %163 = load ptr, ptr %17, align 8, !tbaa !3
  %164 = icmp eq ptr %163, null
  br i1 %164, label %165, label %166

165:                                              ; preds = %156
  store ptr null, ptr %4, align 8
  store i32 1, ptr %19, align 4
  br label %218

166:                                              ; preds = %156
  %167 = load i64, ptr %5, align 8, !tbaa !91
  %168 = load i64, ptr %16, align 8, !tbaa !91
  %169 = sub i64 %167, %168
  %170 = load i64, ptr %6, align 8, !tbaa !91
  %171 = load i64, ptr %16, align 8, !tbaa !91
  %172 = sub i64 %170, %171
  %173 = load i32, ptr %7, align 4, !tbaa !17
  %174 = call ptr @perm_comb_small(i64 noundef %169, i64 noundef %172, i32 noundef %173)
  store ptr %174, ptr %18, align 8, !tbaa !3
  %175 = load ptr, ptr %18, align 8, !tbaa !3
  %176 = icmp eq ptr %175, null
  br i1 %176, label %177, label %178

177:                                              ; preds = %166
  br label %216

178:                                              ; preds = %166
  br label %179

179:                                              ; preds = %178
  call void @llvm.lifetime.start.p0(i64 8, ptr %20) #10
  store ptr %17, ptr %20, align 8, !tbaa !9
  call void @llvm.lifetime.start.p0(i64 8, ptr %21) #10
  %180 = load ptr, ptr %20, align 8, !tbaa !9
  %181 = load ptr, ptr %180, align 8, !tbaa !3
  store ptr %181, ptr %21, align 8, !tbaa !3
  %182 = load ptr, ptr %17, align 8, !tbaa !3
  %183 = load ptr, ptr %18, align 8, !tbaa !3
  %184 = call ptr @PyNumber_Multiply(ptr noundef %182, ptr noundef %183)
  %185 = load ptr, ptr %20, align 8, !tbaa !9
  store ptr %184, ptr %185, align 8, !tbaa !3
  %186 = load ptr, ptr %21, align 8, !tbaa !3
  call void @Py_DECREF(ptr noundef %186)
  call void @llvm.lifetime.end.p0(i64 8, ptr %21) #10
  call void @llvm.lifetime.end.p0(i64 8, ptr %20) #10
  br label %187

187:                                              ; preds = %179
  br label %188

188:                                              ; preds = %187
  %189 = load ptr, ptr %18, align 8, !tbaa !3
  call void @Py_DECREF(ptr noundef %189)
  %190 = load i32, ptr %7, align 4, !tbaa !17
  %191 = icmp ne i32 %190, 0
  br i1 %191, label %192, label %214

192:                                              ; preds = %188
  %193 = load ptr, ptr %17, align 8, !tbaa !3
  %194 = icmp ne ptr %193, null
  br i1 %194, label %195, label %214

195:                                              ; preds = %192
  %196 = load i64, ptr %6, align 8, !tbaa !91
  %197 = load i64, ptr %16, align 8, !tbaa !91
  %198 = call ptr @perm_comb_small(i64 noundef %196, i64 noundef %197, i32 noundef 1)
  store ptr %198, ptr %18, align 8, !tbaa !3
  %199 = load ptr, ptr %18, align 8, !tbaa !3
  %200 = icmp eq ptr %199, null
  br i1 %200, label %201, label %202

201:                                              ; preds = %195
  br label %216

202:                                              ; preds = %195
  br label %203

203:                                              ; preds = %202
  call void @llvm.lifetime.start.p0(i64 8, ptr %22) #10
  store ptr %17, ptr %22, align 8, !tbaa !9
  call void @llvm.lifetime.start.p0(i64 8, ptr %23) #10
  %204 = load ptr, ptr %22, align 8, !tbaa !9
  %205 = load ptr, ptr %204, align 8, !tbaa !3
  store ptr %205, ptr %23, align 8, !tbaa !3
  %206 = load ptr, ptr %17, align 8, !tbaa !3
  %207 = load ptr, ptr %18, align 8, !tbaa !3
  %208 = call ptr @PyNumber_FloorDivide(ptr noundef %206, ptr noundef %207)
  %209 = load ptr, ptr %22, align 8, !tbaa !9
  store ptr %208, ptr %209, align 8, !tbaa !3
  %210 = load ptr, ptr %23, align 8, !tbaa !3
  call void @Py_DECREF(ptr noundef %210)
  call void @llvm.lifetime.end.p0(i64 8, ptr %23) #10
  call void @llvm.lifetime.end.p0(i64 8, ptr %22) #10
  br label %211

211:                                              ; preds = %203
  br label %212

212:                                              ; preds = %211
  %213 = load ptr, ptr %18, align 8, !tbaa !3
  call void @Py_DECREF(ptr noundef %213)
  br label %214

214:                                              ; preds = %212, %192, %188
  %215 = load ptr, ptr %17, align 8, !tbaa !3
  store ptr %215, ptr %4, align 8
  store i32 1, ptr %19, align 4
  br label %218

216:                                              ; preds = %201, %177
  %217 = load ptr, ptr %17, align 8, !tbaa !3
  call void @Py_DECREF(ptr noundef %217)
  store ptr null, ptr %4, align 8
  store i32 1, ptr %19, align 4
  br label %218

218:                                              ; preds = %216, %214, %165
  call void @llvm.lifetime.end.p0(i64 8, ptr %18) #10
  call void @llvm.lifetime.end.p0(i64 8, ptr %17) #10
  call void @llvm.lifetime.end.p0(i64 8, ptr %16) #10
  br label %219

219:                                              ; preds = %218, %152, %112, %96, %36
  %220 = load ptr, ptr %4, align 8
  ret ptr %220
}