; Function Attrs: nounwind uwtable
define internal fastcc ptr @perm_comb_small(i64 noundef %0, i64 noundef %1, i32 noundef range(i32 0, 2) %2) unnamed_addr #0 {
  %4 = icmp ne i32 %2, 0
  br i1 %4, label %5, label %46

5:                                                ; preds = %3
  %6 = icmp ult i64 %1, 35
  br i1 %6, label %7, label %.thread

7:                                                ; preds = %5
  %8 = getelementptr [35 x i8], ptr @perm_comb_small.fast_comb_limits1, i64 0, i64 %1
  %9 = load i8, ptr %8, align 1, !tbaa !13
  %10 = zext i8 %9 to i64
  %.not93 = icmp ugt i64 %0, %10
  br i1 %.not93, label %35, label %11

11:                                               ; preds = %7
  %12 = getelementptr [128 x i64], ptr @reduced_factorial_odd_part, i64 0, i64 %0
  %13 = load i64, ptr %12, align 8, !tbaa !37
  %14 = getelementptr [128 x i64], ptr @inverted_factorial_odd_part, i64 0, i64 %1
  %15 = load i64, ptr %14, align 8, !tbaa !37
  %16 = mul i64 %15, %13
  %17 = sub nsw i64 %0, %1
  %18 = getelementptr [128 x i64], ptr @inverted_factorial_odd_part, i64 0, i64 %17
  %19 = load i64, ptr %18, align 8, !tbaa !37
  %20 = mul i64 %16, %19
  %21 = getelementptr [128 x i8], ptr @factorial_trailing_zeros, i64 0, i64 %0
  %22 = load i8, ptr %21, align 1, !tbaa !13
  %23 = zext i8 %22 to i64
  %24 = getelementptr [128 x i8], ptr @factorial_trailing_zeros, i64 0, i64 %1
  %25 = load i8, ptr %24, align 1, !tbaa !13
  %26 = zext i8 %25 to i64
  %27 = getelementptr [128 x i8], ptr @factorial_trailing_zeros, i64 0, i64 %17
  %28 = load i8, ptr %27, align 1, !tbaa !13
  %29 = zext i8 %28 to i64
  %30 = add nuw nsw i64 %26, %29
  %31 = sub nsw i64 %23, %30
  %32 = and i64 %31, 4294967295
  %33 = shl i64 %20, %32
  %34 = tail call ptr @PyLong_FromUnsignedLongLong(i64 noundef %33) #16
  br label %Py_DECREF.exit96

35:                                               ; preds = %7
  %36 = icmp samesign ult i64 %1, 14
  br i1 %36, label %37, label %.thread

37:                                               ; preds = %35
  %38 = getelementptr [14 x i64], ptr @perm_comb_small.fast_comb_limits2, i64 0, i64 %1
  %39 = load i64, ptr %38, align 8, !tbaa !66
  %.not94 = icmp ugt i64 %0, %39
  br i1 %.not94, label %.thread, label %.preheader

.preheader:                                       ; preds = %37
  %40 = icmp samesign ugt i64 %1, 1
  br i1 %40, label %.lr.ph116, label %._crit_edge117

._crit_edge117:                                   ; preds = %.lr.ph116, %.preheader
  %.071.lcssa = phi i64 [ %0, %.preheader ], [ %45, %.lr.ph116 ]
  %41 = tail call ptr @PyLong_FromUnsignedLongLong(i64 noundef %.071.lcssa) #16
  br label %Py_DECREF.exit96

.lr.ph116:                                        ; preds = %.preheader, %.lr.ph116
  %.069115 = phi i64 [ %42, %.lr.ph116 ], [ %0, %.preheader ]
  %.071114 = phi i64 [ %45, %.lr.ph116 ], [ %0, %.preheader ]
  %.072113 = phi i64 [ %44, %.lr.ph116 ], [ 1, %.preheader ]
  %42 = add i64 %.069115, -1
  %43 = mul i64 %42, %.071114
  %44 = add nuw nsw i64 %.072113, 1
  %45 = udiv i64 %43, %44
  %exitcond120.not = icmp eq i64 %44, %1
  br i1 %exitcond120.not, label %._crit_edge117, label %.lr.ph116, !llvm.loop !68

46:                                               ; preds = %3
  %47 = icmp ult i64 %1, 21
  br i1 %47, label %48, label %.thread

48:                                               ; preds = %46
  %49 = getelementptr [21 x i64], ptr @perm_comb_small.fast_perm_limits, i64 0, i64 %1
  %50 = load i64, ptr %49, align 8, !tbaa !66
  %.not = icmp ugt i64 %0, %50
  br i1 %.not, label %.thread, label %51

51:                                               ; preds = %48
  %52 = icmp ult i64 %0, 128
  br i1 %52, label %54, label %.preheader109

.preheader109:                                    ; preds = %51
  %53 = icmp samesign ugt i64 %1, 1
  br i1 %53, label %.lr.ph, label %._crit_edge

54:                                               ; preds = %51
  %55 = getelementptr [128 x i64], ptr @reduced_factorial_odd_part, i64 0, i64 %0
  %56 = load i64, ptr %55, align 8, !tbaa !37
  %57 = sub nsw i64 %0, %1
  %58 = getelementptr [128 x i64], ptr @inverted_factorial_odd_part, i64 0, i64 %57
  %59 = load i64, ptr %58, align 8, !tbaa !37
  %60 = mul i64 %59, %56
  %61 = getelementptr [128 x i8], ptr @factorial_trailing_zeros, i64 0, i64 %0
  %62 = load i8, ptr %61, align 1, !tbaa !13
  %63 = zext i8 %62 to i64
  %64 = getelementptr [128 x i8], ptr @factorial_trailing_zeros, i64 0, i64 %57
  %65 = load i8, ptr %64, align 1, !tbaa !13
  %66 = zext i8 %65 to i64
  %67 = sub nsw i64 %63, %66
  %68 = and i64 %67, 4294967295
  %69 = shl i64 %60, %68
  %70 = tail call ptr @PyLong_FromUnsignedLongLong(i64 noundef %69) #16
  br label %Py_DECREF.exit96

._crit_edge:                                      ; preds = %.lr.ph, %.preheader109
  %.073.lcssa = phi i64 [ %0, %.preheader109 ], [ %73, %.lr.ph ]
  %71 = tail call ptr @PyLong_FromUnsignedLongLong(i64 noundef %.073.lcssa) #16
  br label %Py_DECREF.exit96

.lr.ph:                                           ; preds = %.preheader109, %.lr.ph
  %.170112 = phi i64 [ %72, %.lr.ph ], [ %0, %.preheader109 ]
  %.073111 = phi i64 [ %73, %.lr.ph ], [ %0, %.preheader109 ]
  %.074110 = phi i64 [ %74, %.lr.ph ], [ 1, %.preheader109 ]
  %72 = add i64 %.170112, -1
  %73 = mul i64 %72, %.073111
  %74 = add nuw nsw i64 %.074110, 1
  %exitcond.not = icmp eq i64 %74, %1
  br i1 %exitcond.not, label %._crit_edge, label %.lr.ph, !llvm.loop !69

.thread:                                          ; preds = %5, %46, %48, %35, %37
  %75 = lshr i64 %1, 1
  %76 = tail call fastcc ptr @perm_comb_small(i64 noundef %0, i64 noundef %75, i32 noundef %2)
  %77 = icmp eq ptr %76, null
  br i1 %77, label %Py_DECREF.exit96, label %78

78:                                               ; preds = %.thread
  %79 = sub i64 %0, %75
  %80 = sub i64 %1, %75
  %81 = tail call fastcc ptr @perm_comb_small(i64 noundef %79, i64 noundef %80, i32 noundef %2)
  %82 = icmp eq ptr %81, null
  br i1 %82, label %111, label %83

83:                                               ; preds = %78
  %84 = tail call ptr @PyNumber_Multiply(ptr noundef nonnull %76, ptr noundef nonnull %81) #16
  %85 = load i32, ptr %76, align 8, !tbaa !13
  %.not.i101 = icmp sgt i32 %85, -1
  br i1 %.not.i101, label %86, label %Py_DECREF.exit102

86:                                               ; preds = %83
  %87 = add nsw i32 %85, -1
  store i32 %87, ptr %76, align 8, !tbaa !13
  %88 = icmp eq i32 %87, 0
  br i1 %88, label %89, label %Py_DECREF.exit102

89:                                               ; preds = %86
  tail call void @_Py_Dealloc(ptr noundef nonnull %76) #16
  br label %Py_DECREF.exit102

Py_DECREF.exit102:                                ; preds = %83, %86, %89
  %90 = load i32, ptr %81, align 8, !tbaa !13
  %.not.i99 = icmp sgt i32 %90, -1
  br i1 %.not.i99, label %91, label %Py_DECREF.exit100

91:                                               ; preds = %Py_DECREF.exit102
  %92 = add nsw i32 %90, -1
  store i32 %92, ptr %81, align 8, !tbaa !13
  %93 = icmp eq i32 %92, 0
  br i1 %93, label %94, label %Py_DECREF.exit100

94:                                               ; preds = %91
  tail call void @_Py_Dealloc(ptr noundef nonnull %81) #16
  br label %Py_DECREF.exit100

Py_DECREF.exit100:                                ; preds = %Py_DECREF.exit102, %91, %94
  %95 = icmp ne ptr %84, null
  %or.cond = select i1 %4, i1 %95, i1 false
  br i1 %or.cond, label %96, label %Py_DECREF.exit96

96:                                               ; preds = %Py_DECREF.exit100
  %97 = tail call fastcc ptr @perm_comb_small(i64 noundef %1, i64 noundef %75, i32 noundef 1)
  %98 = icmp eq ptr %97, null
  br i1 %98, label %111, label %99

99:                                               ; preds = %96
  %100 = tail call ptr @PyNumber_FloorDivide(ptr noundef nonnull %84, ptr noundef nonnull %97) #16
  %101 = load i32, ptr %84, align 8, !tbaa !13
  %.not.i97 = icmp sgt i32 %101, -1
  br i1 %.not.i97, label %102, label %Py_DECREF.exit98

102:                                              ; preds = %99
  %103 = add nsw i32 %101, -1
  store i32 %103, ptr %84, align 8, !tbaa !13
  %104 = icmp eq i32 %103, 0
  br i1 %104, label %105, label %Py_DECREF.exit98

105:                                              ; preds = %102
  tail call void @_Py_Dealloc(ptr noundef nonnull %84) #16
  br label %Py_DECREF.exit98

Py_DECREF.exit98:                                 ; preds = %99, %102, %105
  %106 = load i32, ptr %97, align 8, !tbaa !13
  %.not.i95 = icmp sgt i32 %106, -1
  br i1 %.not.i95, label %107, label %Py_DECREF.exit96

107:                                              ; preds = %Py_DECREF.exit98
  %108 = add nsw i32 %106, -1
  store i32 %108, ptr %97, align 8, !tbaa !13
  %109 = icmp eq i32 %108, 0
  br i1 %109, label %110, label %Py_DECREF.exit96

110:                                              ; preds = %107
  tail call void @_Py_Dealloc(ptr noundef nonnull %97) #16
  br label %Py_DECREF.exit96

111:                                              ; preds = %96, %78
  %.082 = phi ptr [ %76, %78 ], [ %84, %96 ]
  %112 = load i32, ptr %.082, align 8, !tbaa !13
  %.not.i = icmp sgt i32 %112, -1
  br i1 %.not.i, label %113, label %Py_DECREF.exit96

113:                                              ; preds = %111
  %114 = add nsw i32 %112, -1
  store i32 %114, ptr %.082, align 8, !tbaa !13
  %115 = icmp eq i32 %114, 0
  br i1 %115, label %116, label %Py_DECREF.exit96

116:                                              ; preds = %113
  tail call void @_Py_Dealloc(ptr noundef nonnull %.082) #16
  br label %Py_DECREF.exit96

Py_DECREF.exit96:                                 ; preds = %116, %113, %111, %110, %107, %Py_DECREF.exit98, %.thread, %Py_DECREF.exit100, %._crit_edge, %54, %._crit_edge117, %11
  %.0 = phi ptr [ %34, %11 ], [ %41, %._crit_edge117 ], [ %70, %54 ], [ %71, %._crit_edge ], [ null, %.thread ], [ %84, %Py_DECREF.exit100 ], [ %100, %Py_DECREF.exit98 ], [ %100, %107 ], [ %100, %110 ], [ null, %111 ], [ null, %113 ], [ null, %116 ]
  ret ptr %.0
}